target datalayout = "e-m:e-p270:32:32-p271:32:32-p272:64:64-i64:64-i128:128-f80:128-n8:16:32:64-S128"
target triple = "x86_64-pc-linux-gnu"

%struct.unidirectional_transfer = type { i32, i32, i32, i32, i32, [65536 x i8], i64, ptr, ptr }

@.str.37 = private unnamed_addr constant [1 x i8] zeroinitializer, align 1
@git_gettext_enabled = external global i32, align 4
@.str.158 = private unnamed_addr constant [15 x i8] c"%s is readable\00", align 1
@.str.159 = private unnamed_addr constant [16 x i8] c"read(%s) failed\00", align 1
@.str.160 = private unnamed_addr constant [33 x i8] c"%s EOF (with %i bytes in buffer)\00", align 1
@.str.161 = private unnamed_addr constant [41 x i8] c"Read %i bytes from %s (buffer now at %i)\00", align 1
@.str.164 = private unnamed_addr constant [15 x i8] c"%s is writable\00", align 1
@.str.165 = private unnamed_addr constant [17 x i8] c"write(%s) failed\00", align 1
@.str.166 = private unnamed_addr constant [40 x i8] c"Wrote %i bytes to %s (buffer now at %i)\00", align 1
@.str.167 = private unnamed_addr constant [11 x i8] c"Closed %s.\00", align 1

; Function Attrs: inlinehint nounwind uwtable
define internal i32 @const_error() #6 {
  ret i32 -1
}

; Function Attrs: inlinehint nounwind uwtable
define internal ptr @_(ptr noundef %0) #6 {
  %2 = alloca ptr, align 8
  %3 = alloca ptr, align 8
  store ptr %0, ptr %3, align 8, !tbaa !9
  %4 = load ptr, ptr %3, align 8, !tbaa !9
  %5 = load i8, ptr %4, align 1, !tbaa !106
  %6 = icmp ne i8 %5, 0
  br i1 %6, label %8, label %7

7:                                                ; preds = %1
  store ptr @.str.37, ptr %2, align 8
  br label %16

8:                                                ; preds = %1
  %9 = load i32, ptr @git_gettext_enabled, align 4, !tbaa !29
  %10 = icmp ne i32 %9, 0
  br i1 %10, label %13, label %11

11:                                               ; preds = %8
  %12 = load ptr, ptr %3, align 8, !tbaa !9
  store ptr %12, ptr %2, align 8
  br label %16

13:                                               ; preds = %8
  %14 = load ptr, ptr %3, align 8, !tbaa !9
  %15 = call ptr @dcgettext(ptr noundef null, ptr noundef %14, i32 noundef 5) #12
  store ptr %15, ptr %2, align 8
  br label %16

16:                                               ; preds = %13, %11, %7
  %17 = load ptr, ptr %2, align 8
  ret ptr %17
}

; Function Attrs: nounwind uwtable
define internal void @udt_close_if_finished(ptr noundef %0) #0 {
  %2 = alloca ptr, align 8
  store ptr %0, ptr %2, align 8, !tbaa !157
  %3 = load ptr, ptr %2, align 8, !tbaa !157
  %4 = getelementptr inbounds nuw %struct.unidirectional_transfer, ptr %3, i32 0, i32 4
  %5 = load i32, ptr %4, align 8, !tbaa !159
  %6 = icmp eq i32 %5, 1
  br i1 %6, label %7, label %33

7:                                                ; preds = %1
  %8 = load ptr, ptr %2, align 8, !tbaa !157
  %9 = getelementptr inbounds nuw %struct.unidirectional_transfer, ptr %8, i32 0, i32 6
  %10 = load i64, ptr %9, align 8, !tbaa !161
  %11 = icmp ne i64 %10, 0
  br i1 %11, label %33, label %12

12:                                               ; preds = %7
  %13 = load ptr, ptr %2, align 8, !tbaa !157
  %14 = getelementptr inbounds nuw %struct.unidirectional_transfer, ptr %13, i32 0, i32 4
  store i32 2, ptr %14, align 8, !tbaa !159
  %15 = load ptr, ptr %2, align 8, !tbaa !157
  %16 = getelementptr inbounds nuw %struct.unidirectional_transfer, ptr %15, i32 0, i32 3
  %17 = load i32, ptr %16, align 4, !tbaa !166
  %18 = icmp ne i32 %17, 0
  br i1 %18, label %19, label %24

19:                                               ; preds = %12
  %20 = load ptr, ptr %2, align 8, !tbaa !157
  %21 = getelementptr inbounds nuw %struct.unidirectional_transfer, ptr %20, i32 0, i32 1
  %22 = load i32, ptr %21, align 4, !tbaa !165
  %23 = call i32 @shutdown(i32 noundef %22, i32 noundef 1) #12
  br label %29

24:                                               ; preds = %12
  %25 = load ptr, ptr %2, align 8, !tbaa !157
  %26 = getelementptr inbounds nuw %struct.unidirectional_transfer, ptr %25, i32 0, i32 1
  %27 = load i32, ptr %26, align 4, !tbaa !165
  %28 = call i32 @close(i32 noundef %27)
  br label %29

29:                                               ; preds = %24, %19
  %30 = load ptr, ptr %2, align 8, !tbaa !157
  %31 = getelementptr inbounds nuw %struct.unidirectional_transfer, ptr %30, i32 0, i32 8
  %32 = load ptr, ptr %31, align 8, !tbaa !164
  call void (ptr, ...) @transfer_debug(ptr noundef @.str.167, ptr noundef %32)
  br label %33

33:                                               ; preds = %29, %7, %1
  ret void
}

; Function Attrs: nounwind uwtable
define internal i32 @udt_do_write(ptr noundef %0) #0 {
  %2 = alloca i32, align 4
  %3 = alloca ptr, align 8
  %4 = alloca i64, align 8
  %5 = alloca i32, align 4
  store ptr %0, ptr %3, align 8, !tbaa !157
  call void @llvm.lifetime.start.p0(i64 8, ptr %4) #12
  %6 = load ptr, ptr %3, align 8, !tbaa !157
  %7 = getelementptr inbounds nuw %struct.unidirectional_transfer, ptr %6, i32 0, i32 6
  %8 = load i64, ptr %7, align 8, !tbaa !161
  %9 = icmp eq i64 %8, 0
  br i1 %9, label %10, label %11

10:                                               ; preds = %1
  store i32 0, ptr %2, align 4
  store i32 1, ptr %5, align 4
  br label %71

11:                                               ; preds = %1
  %12 = load ptr, ptr %3, align 8, !tbaa !157
  %13 = getelementptr inbounds nuw %struct.unidirectional_transfer, ptr %12, i32 0, i32 8
  %14 = load ptr, ptr %13, align 8, !tbaa !164
  call void (ptr, ...) @transfer_debug(ptr noundef @.str.164, ptr noundef %14)
  %15 = load ptr, ptr %3, align 8, !tbaa !157
  %16 = getelementptr inbounds nuw %struct.unidirectional_transfer, ptr %15, i32 0, i32 1
  %17 = load i32, ptr %16, align 4, !tbaa !165
  %18 = load ptr, ptr %3, align 8, !tbaa !157
  %19 = getelementptr inbounds nuw %struct.unidirectional_transfer, ptr %18, i32 0, i32 5
  %20 = getelementptr inbounds [65536 x i8], ptr %19, i64 0, i64 0
  %21 = load ptr, ptr %3, align 8, !tbaa !157
  %22 = getelementptr inbounds nuw %struct.unidirectional_transfer, ptr %21, i32 0, i32 6
  %23 = load i64, ptr %22, align 8, !tbaa !161
  %24 = call i64 @xwrite(i32 noundef %17, ptr noundef %20, i64 noundef %23)
  store i64 %24, ptr %4, align 8, !tbaa !62
  %25 = load i64, ptr %4, align 8, !tbaa !62
  %26 = icmp slt i64 %25, 0
  br i1 %26, label %27, label %34

27:                                               ; preds = %11
  %28 = call ptr @_(ptr noundef @.str.165)
  %29 = load ptr, ptr %3, align 8, !tbaa !157
  %30 = getelementptr inbounds nuw %struct.unidirectional_transfer, ptr %29, i32 0, i32 8
  %31 = load ptr, ptr %30, align 8, !tbaa !164
  %32 = call i32 (ptr, ...) @error_errno(ptr noundef %28, ptr noundef %31)
  %33 = call i32 @const_error()
  store i32 -1, ptr %2, align 4
  store i32 1, ptr %5, align 4
  br label %71

34:                                               ; preds = %11
  %35 = load i64, ptr %4, align 8, !tbaa !62
  %36 = icmp sgt i64 %35, 0
  br i1 %36, label %37, label %69

37:                                               ; preds = %34
  %38 = load i64, ptr %4, align 8, !tbaa !62
  %39 = load ptr, ptr %3, align 8, !tbaa !157
  %40 = getelementptr inbounds nuw %struct.unidirectional_transfer, ptr %39, i32 0, i32 6
  %41 = load i64, ptr %40, align 8, !tbaa !161
  %42 = sub i64 %41, %38
  store i64 %42, ptr %40, align 8, !tbaa !161
  %43 = load ptr, ptr %3, align 8, !tbaa !157
  %44 = getelementptr inbounds nuw %struct.unidirectional_transfer, ptr %43, i32 0, i32 6
  %45 = load i64, ptr %44, align 8, !tbaa !161
  %46 = icmp ne i64 %45, 0
  br i1 %46, label %47, label %59

47:                                               ; preds = %37
  %48 = load ptr, ptr %3, align 8, !tbaa !157
  %49 = getelementptr inbounds nuw %struct.unidirectional_transfer, ptr %48, i32 0, i32 5
  %50 = getelementptr inbounds [65536 x i8], ptr %49, i64 0, i64 0
  %51 = load ptr, ptr %3, align 8, !tbaa !157
  %52 = getelementptr inbounds nuw %struct.unidirectional_transfer, ptr %51, i32 0, i32 5
  %53 = getelementptr inbounds [65536 x i8], ptr %52, i64 0, i64 0
  %54 = load i64, ptr %4, align 8, !tbaa !62
  %55 = getelementptr inbounds i8, ptr %53, i64 %54
  %56 = load ptr, ptr %3, align 8, !tbaa !157
  %57 = getelementptr inbounds nuw %struct.unidirectional_transfer, ptr %56, i32 0, i32 6
  %58 = load i64, ptr %57, align 8, !tbaa !161
  call void @llvm.memmove.p0.p0.i64(ptr align 4 %50, ptr align 1 %55, i64 %58, i1 false)
  br label %59

59:                                               ; preds = %47, %37
  %60 = load i64, ptr %4, align 8, !tbaa !62
  %61 = trunc i64 %60 to i32
  %62 = load ptr, ptr %3, align 8, !tbaa !157
  %63 = getelementptr inbounds nuw %struct.unidirectional_transfer, ptr %62, i32 0, i32 8
  %64 = load ptr, ptr %63, align 8, !tbaa !164
  %65 = load ptr, ptr %3, align 8, !tbaa !157
  %66 = getelementptr inbounds nuw %struct.unidirectional_transfer, ptr %65, i32 0, i32 6
  %67 = load i64, ptr %66, align 8, !tbaa !161
  %68 = trunc i64 %67 to i32
  call void (ptr, ...) @transfer_debug(ptr noundef @.str.166, i32 noundef %61, ptr noundef %64, i32 noundef %68)
  br label %69

69:                                               ; preds = %59, %34
  br label %70

70:                                               ; preds = %69
  store i32 0, ptr %2, align 4
  store i32 1, ptr %5, align 4
  br label %71

71:                                               ; preds = %70, %27, %10
  call void @llvm.lifetime.end.p0(i64 8, ptr %4) #12
  %72 = load i32, ptr %2, align 4
  ret i32 %72
}

; Function Attrs: nounwind uwtable
define internal i32 @udt_do_read(ptr noundef %0) #0 {
  %2 = alloca i32, align 4
  %3 = alloca ptr, align 8
  %4 = alloca i64, align 8
  %5 = alloca i32, align 4
  store ptr %0, ptr %3, align 8, !tbaa !157
  call void @llvm.lifetime.start.p0(i64 8, ptr %4) #12
  %6 = load ptr, ptr %3, align 8, !tbaa !157
  %7 = getelementptr inbounds nuw %struct.unidirectional_transfer, ptr %6, i32 0, i32 6
  %8 = load i64, ptr %7, align 8, !tbaa !161
  %9 = icmp eq i64 %8, 65536
  br i1 %9, label %10, label %11

10:                                               ; preds = %1
  store i32 0, ptr %2, align 4
  store i32 1, ptr %5, align 4
  br label %73

11:                                               ; preds = %1
  %12 = load ptr, ptr %3, align 8, !tbaa !157
  %13 = getelementptr inbounds nuw %struct.unidirectional_transfer, ptr %12, i32 0, i32 7
  %14 = load ptr, ptr %13, align 8, !tbaa !162
  call void (ptr, ...) @transfer_debug(ptr noundef @.str.158, ptr noundef %14)
  %15 = load ptr, ptr %3, align 8, !tbaa !157
  %16 = getelementptr inbounds nuw %struct.unidirectional_transfer, ptr %15, i32 0, i32 0
  %17 = load i32, ptr %16, align 8, !tbaa !163
  %18 = load ptr, ptr %3, align 8, !tbaa !157
  %19 = getelementptr inbounds nuw %struct.unidirectional_transfer, ptr %18, i32 0, i32 5
  %20 = getelementptr inbounds [65536 x i8], ptr %19, i64 0, i64 0
  %21 = load ptr, ptr %3, align 8, !tbaa !157
  %22 = getelementptr inbounds nuw %struct.unidirectional_transfer, ptr %21, i32 0, i32 6
  %23 = load i64, ptr %22, align 8, !tbaa !161
  %24 = getelementptr inbounds nuw i8, ptr %20, i64 %23
  %25 = load ptr, ptr %3, align 8, !tbaa !157
  %26 = getelementptr inbounds nuw %struct.unidirectional_transfer, ptr %25, i32 0, i32 6
  %27 = load i64, ptr %26, align 8, !tbaa !161
  %28 = sub i64 65536, %27
  %29 = call i64 @xread(i32 noundef %17, ptr noundef %24, i64 noundef %28)
  store i64 %29, ptr %4, align 8, !tbaa !62
  %30 = load i64, ptr %4, align 8, !tbaa !62
  %31 = icmp slt i64 %30, 0
  br i1 %31, label %32, label %39

32:                                               ; preds = %11
  %33 = call ptr @_(ptr noundef @.str.159)
  %34 = load ptr, ptr %3, align 8, !tbaa !157
  %35 = getelementptr inbounds nuw %struct.unidirectional_transfer, ptr %34, i32 0, i32 7
  %36 = load ptr, ptr %35, align 8, !tbaa !162
  %37 = call i32 (ptr, ...) @error_errno(ptr noundef %33, ptr noundef %36)
  %38 = call i32 @const_error()
  store i32 -1, ptr %2, align 4
  store i32 1, ptr %5, align 4
  br label %73

39:                                               ; preds = %11
  %40 = load i64, ptr %4, align 8, !tbaa !62
  %41 = icmp eq i64 %40, 0
  br i1 %41, label %42, label %52

42:                                               ; preds = %39
  %43 = load ptr, ptr %3, align 8, !tbaa !157
  %44 = getelementptr inbounds nuw %struct.unidirectional_transfer, ptr %43, i32 0, i32 7
  %45 = load ptr, ptr %44, align 8, !tbaa !162
  %46 = load ptr, ptr %3, align 8, !tbaa !157
  %47 = getelementptr inbounds nuw %struct.unidirectional_transfer, ptr %46, i32 0, i32 6
  %48 = load i64, ptr %47, align 8, !tbaa !161
  %49 = trunc i64 %48 to i32
  call void (ptr, ...) @transfer_debug(ptr noundef @.str.160, ptr noundef %45, i32 noundef %49)
  %50 = load ptr, ptr %3, align 8, !tbaa !157
  %51 = getelementptr inbounds nuw %struct.unidirectional_transfer, ptr %50, i32 0, i32 4
  store i32 1, ptr %51, align 8, !tbaa !159
  br label %71

52:                                               ; preds = %39
  %53 = load i64, ptr %4, align 8, !tbaa !62
  %54 = icmp sgt i64 %53, 0
  br i1 %54, label %55, label %70

55:                                               ; preds = %52
  %56 = load i64, ptr %4, align 8, !tbaa !62
  %57 = load ptr, ptr %3, align 8, !tbaa !157
  %58 = getelementptr inbounds nuw %struct.unidirectional_transfer, ptr %57, i32 0, i32 6
  %59 = load i64, ptr %58, align 8, !tbaa !161
  %60 = add i64 %59, %56
  store i64 %60, ptr %58, align 8, !tbaa !161
  %61 = load i64, ptr %4, align 8, !tbaa !62
  %62 = trunc i64 %61 to i32
  %63 = load ptr, ptr %3, align 8, !tbaa !157
  %64 = getelementptr inbounds nuw %struct.unidirectional_transfer, ptr %63, i32 0, i32 7
  %65 = load ptr, ptr %64, align 8, !tbaa !162
  %66 = load ptr, ptr %3, align 8, !tbaa !157
  %67 = getelementptr inbounds nuw %struct.unidirectional_transfer, ptr %66, i32 0, i32 6
  %68 = load i64, ptr %67, align 8, !tbaa !161
  %69 = trunc i64 %68 to i32
  call void (ptr, ...) @transfer_debug(ptr noundef @.str.161, i32 noundef %62, ptr noundef %65, i32 noundef %69)
  br label %70

70:                                               ; preds = %55, %52
  br label %71

71:                                               ; preds = %70, %42
  br label %72

72:                                               ; preds = %71
  store i32 0, ptr %2, align 4
  store i32 1, ptr %5, align 4
  br label %73

73:                                               ; preds = %72, %32, %10
  call void @llvm.lifetime.end.p0(i64 8, ptr %4) #12
  %74 = load i32, ptr %2, align 4
  ret i32 %74
}

; Function Attrs: nounwind uwtable
define internal ptr @udt_copy_task_routine(ptr noundef %0) #0 {
  %2 = alloca ptr, align 8
  %3 = alloca ptr, align 8
  %4 = alloca ptr, align 8
  %5 = alloca i32, align 4
  store ptr %0, ptr %3, align 8, !tbaa !156
  call void @llvm.lifetime.start.p0(i64 8, ptr %4) #12
  %6 = load ptr, ptr %3, align 8, !tbaa !156
  store ptr %6, ptr %4, align 8, !tbaa !157
  br label %7

7:                                                ; preds = %41, %1
  %8 = load ptr, ptr %4, align 8, !tbaa !157
  %9 = getelementptr inbounds nuw %struct.unidirectional_transfer, ptr %8, i32 0, i32 4
  %10 = load i32, ptr %9, align 8, !tbaa !159
  %11 = icmp ne i32 %10, 2
  br i1 %11, label %12, label %42

12:                                               ; preds = %7
  %13 = load ptr, ptr %4, align 8, !tbaa !157
  %14 = getelementptr inbounds nuw %struct.unidirectional_transfer, ptr %13, i32 0, i32 4
  %15 = load i32, ptr %14, align 8, !tbaa !159
  %16 = icmp sle i32 %15, 0
  br i1 %16, label %17, label %23

17:                                               ; preds = %12
  %18 = load ptr, ptr %4, align 8, !tbaa !157
  %19 = call i32 @udt_do_read(ptr noundef %18)
  %20 = icmp ne i32 %19, 0
  br i1 %20, label %21, label %22

21:                                               ; preds = %17
  store ptr null, ptr %2, align 8
  store i32 1, ptr %5, align 4
  br label %44

22:                                               ; preds = %17
  br label %23

23:                                               ; preds = %22, %12
  %24 = load ptr, ptr %4, align 8, !tbaa !157
  %25 = getelementptr inbounds nuw %struct.unidirectional_transfer, ptr %24, i32 0, i32 4
  %26 = load i32, ptr %25, align 8, !tbaa !159
  %27 = icmp sle i32 %26, 1
  br i1 %27, label %28, label %34

28:                                               ; preds = %23
  %29 = load ptr, ptr %4, align 8, !tbaa !157
  %30 = call i32 @udt_do_write(ptr noundef %29)
  %31 = icmp ne i32 %30, 0
  br i1 %31, label %32, label %33

32:                                               ; preds = %28
  store ptr null, ptr %2, align 8
  store i32 1, ptr %5, align 4
  br label %44

33:                                               ; preds = %28
  br label %34

34:                                               ; preds = %33, %23
  %35 = load ptr, ptr %4, align 8, !tbaa !157
  %36 = getelementptr inbounds nuw %struct.unidirectional_transfer, ptr %35, i32 0, i32 4
  %37 = load i32, ptr %36, align 8, !tbaa !159
  %38 = icmp eq i32 %37, 1
  br i1 %38, label %39, label %41

39:                                               ; preds = %34
  %40 = load ptr, ptr %4, align 8, !tbaa !157
  call void @udt_close_if_finished(ptr noundef %40)
  br label %41

41:                                               ; preds = %39, %34
  br label %7, !llvm.loop !160

42:                                               ; preds = %7
  %43 = load ptr, ptr %3, align 8, !tbaa !156
  store ptr %43, ptr %2, align 8
  store i32 1, ptr %5, align 4
  br label %44

44:                                               ; preds = %42, %32, %21
  call void @llvm.lifetime.end.p0(i64 8, ptr %4) #12
  %45 = load ptr, ptr %2, align 8
  ret ptr %45
}