; Function Attrs: nounwind uwtable
define internal noundef ptr @udt_copy_task_routine(ptr noundef %0) #0 {
  %2 = getelementptr inbounds nuw i8, ptr %0, i64 16
  %3 = load i32, ptr %2, align 8, !tbaa !127
  %.not23 = icmp eq i32 %3, 2
  br i1 %.not23, label %.loopexit, label %.lr.ph

.lr.ph:                                           ; preds = %1
  %4 = getelementptr inbounds nuw i8, ptr %0, i64 65560
  %5 = getelementptr inbounds nuw i8, ptr %0, i64 65568
  %6 = getelementptr inbounds nuw i8, ptr %0, i64 20
  %7 = getelementptr inbounds nuw i8, ptr %0, i64 65576
  %8 = getelementptr inbounds nuw i8, ptr %0, i64 4
  %9 = getelementptr inbounds nuw i8, ptr %0, i64 12
  br label %10

10:                                               ; preds = %.lr.ph, %udt_close_if_finished.exit
  %11 = phi i32 [ %3, %.lr.ph ], [ %80, %udt_close_if_finished.exit ]
  %12 = icmp slt i32 %11, 1
  br i1 %12, label %13, label %udt_do_read.exit.thread

13:                                               ; preds = %10
  %14 = load i64, ptr %4, align 8, !tbaa !128
  %15 = icmp eq i64 %14, 65536
  br i1 %15, label %udt_do_read.exit.thread.thread.thread, label %16

16:                                               ; preds = %13
  %17 = load ptr, ptr %5, align 8, !tbaa !129
  tail call void (ptr, ...) @transfer_debug(ptr noundef nonnull @.str.158, ptr noundef %17)
  %18 = load i32, ptr %0, align 8, !tbaa !130
  %19 = load i64, ptr %4, align 8, !tbaa !128
  %20 = getelementptr inbounds nuw i8, ptr %6, i64 %19
  %21 = sub i64 65536, %19
  %22 = tail call i64 @xread(i32 noundef %18, ptr noundef nonnull %20, i64 noundef %21) #19
  %23 = icmp slt i64 %22, 0
  br i1 %23, label %24, label %28

24:                                               ; preds = %16
  %25 = load i32, ptr @git_gettext_enabled, align 4, !tbaa !55
  %.not4.i.i = icmp eq i32 %25, 0
  br i1 %.not4.i.i, label %udt_do_read.exit, label %26

26:                                               ; preds = %24
  %27 = tail call ptr @dcgettext(ptr noundef null, ptr noundef nonnull @.str.159, i32 noundef 5) #19
  br label %udt_do_read.exit

28:                                               ; preds = %16
  %29 = icmp eq i64 %22, 0
  br i1 %29, label %30, label %34

30:                                               ; preds = %28
  %31 = load ptr, ptr %5, align 8, !tbaa !129
  %32 = load i64, ptr %4, align 8, !tbaa !128
  %33 = trunc i64 %32 to i32
  tail call void (ptr, ...) @transfer_debug(ptr noundef nonnull @.str.160, ptr noundef %31, i32 noundef %33)
  store i32 1, ptr %2, align 8, !tbaa !127
  br label %udt_do_read.exit.thread.thread

34:                                               ; preds = %28
  %35 = load i64, ptr %4, align 8, !tbaa !128
  %36 = add i64 %35, %22
  store i64 %36, ptr %4, align 8, !tbaa !128
  %37 = trunc i64 %22 to i32
  %38 = load ptr, ptr %5, align 8, !tbaa !129
  %39 = trunc i64 %36 to i32
  tail call void (ptr, ...) @transfer_debug(ptr noundef nonnull @.str.161, i32 noundef %37, ptr noundef %38, i32 noundef %39)
  %.pr.pre = load i32, ptr %2, align 8, !tbaa !127
  br label %udt_do_read.exit.thread

udt_do_read.exit:                                 ; preds = %24, %26
  %.0.i.i = phi ptr [ %27, %26 ], [ @.str.159, %24 ]
  %40 = load ptr, ptr %5, align 8, !tbaa !129
  %41 = tail call i32 (ptr, ...) @error_errno(ptr noundef %.0.i.i, ptr noundef %40) #19
  br label %.loopexit

udt_do_read.exit.thread:                          ; preds = %34, %10
  %42 = phi i32 [ %11, %10 ], [ %.pr.pre, %34 ]
  %43 = icmp slt i32 %42, 2
  br i1 %43, label %udt_do_read.exit.thread.thread, label %udt_do_write.exit.thread

udt_do_read.exit.thread.thread:                   ; preds = %30, %udt_do_read.exit.thread
  %.pr = load i64, ptr %4, align 8, !tbaa !128
  %44 = icmp eq i64 %.pr, 0
  br i1 %44, label %udt_do_write.exit.thread, label %udt_do_read.exit.thread.thread.thread

udt_do_read.exit.thread.thread.thread:            ; preds = %13, %udt_do_read.exit.thread.thread
  %45 = load ptr, ptr %7, align 8, !tbaa !131
  tail call void (ptr, ...) @transfer_debug(ptr noundef nonnull @.str.164, ptr noundef %45)
  %46 = load i32, ptr %8, align 4, !tbaa !132
  %47 = load i64, ptr %4, align 8, !tbaa !128
  %48 = tail call i64 @xwrite(i32 noundef %46, ptr noundef nonnull %6, i64 noundef %47) #19
  %49 = icmp slt i64 %48, 0
  br i1 %49, label %50, label %54

50:                                               ; preds = %udt_do_read.exit.thread.thread.thread
  %51 = load i32, ptr @git_gettext_enabled, align 4, !tbaa !55
  %.not4.i.i14 = icmp eq i32 %51, 0
  br i1 %.not4.i.i14, label %udt_do_write.exit, label %52

52:                                               ; preds = %50
  %53 = tail call ptr @dcgettext(ptr noundef null, ptr noundef nonnull @.str.165, i32 noundef 5) #19
  br label %udt_do_write.exit

54:                                               ; preds = %udt_do_read.exit.thread.thread.thread
  %.not.i = icmp eq i64 %48, 0
  br i1 %.not.i, label %udt_do_write.exit.thread, label %55

55:                                               ; preds = %54
  %56 = load i64, ptr %4, align 8, !tbaa !128
  %57 = sub i64 %56, %48
  store i64 %57, ptr %4, align 8, !tbaa !128
  %.not20.i = icmp eq i64 %56, %48
  br i1 %.not20.i, label %61, label %58

58:                                               ; preds = %55
  %59 = getelementptr inbounds nuw i8, ptr %6, i64 %48
  tail call void @llvm.memmove.p0.p0.i64(ptr nonnull align 4 %6, ptr nonnull align 1 %59, i64 %57, i1 false)
  %.pre.i = load i64, ptr %4, align 8, !tbaa !128
  %60 = trunc i64 %.pre.i to i32
  br label %61

61:                                               ; preds = %58, %55
  %62 = phi i32 [ %60, %58 ], [ 0, %55 ]
  %63 = trunc i64 %48 to i32
  %64 = load ptr, ptr %7, align 8, !tbaa !131
  tail call void (ptr, ...) @transfer_debug(ptr noundef nonnull @.str.166, i32 noundef %63, ptr noundef %64, i32 noundef %62)
  br label %udt_do_write.exit.thread

udt_do_write.exit:                                ; preds = %50, %52
  %.0.i.i16 = phi ptr [ %53, %52 ], [ @.str.165, %50 ]
  %65 = load ptr, ptr %7, align 8, !tbaa !131
  %66 = tail call i32 (ptr, ...) @error_errno(ptr noundef %.0.i.i16, ptr noundef %65) #19
  br label %.loopexit

udt_do_write.exit.thread:                         ; preds = %61, %54, %udt_do_read.exit.thread.thread, %udt_do_read.exit.thread
  %67 = load i32, ptr %2, align 8, !tbaa !127
  %68 = icmp eq i32 %67, 1
  br i1 %68, label %69, label %udt_close_if_finished.exit

69:                                               ; preds = %udt_do_write.exit.thread
  %70 = load i64, ptr %4, align 8, !tbaa !128
  %.not.i17 = icmp eq i64 %70, 0
  br i1 %.not.i17, label %71, label %udt_close_if_finished.exit

71:                                               ; preds = %69
  store i32 2, ptr %2, align 8, !tbaa !127
  %72 = load i32, ptr %9, align 4, !tbaa !133
  %.not7.i = icmp eq i32 %72, 0
  %73 = load i32, ptr %8, align 4, !tbaa !132
  br i1 %.not7.i, label %76, label %74

74:                                               ; preds = %71
  %75 = tail call i32 @shutdown(i32 noundef %73, i32 noundef 1) #19
  br label %78

76:                                               ; preds = %71
  %77 = tail call i32 @close(i32 noundef %73) #19
  br label %78

78:                                               ; preds = %76, %74
  %79 = load ptr, ptr %7, align 8, !tbaa !131
  tail call void (ptr, ...) @transfer_debug(ptr noundef nonnull @.str.167, ptr noundef %79)
  %.pre = load i32, ptr %2, align 8, !tbaa !127
  br label %udt_close_if_finished.exit

udt_close_if_finished.exit:                       ; preds = %78, %69, %udt_do_write.exit.thread
  %80 = phi i32 [ %.pre, %78 ], [ 1, %69 ], [ %67, %udt_do_write.exit.thread ]
  %.not = icmp eq i32 %80, 2
  br i1 %.not, label %.loopexit, label %10, !llvm.loop !134

.loopexit:                                        ; preds = %udt_close_if_finished.exit, %1, %udt_do_write.exit, %udt_do_read.exit
  %.0 = phi ptr [ null, %udt_do_read.exit ], [ null, %udt_do_write.exit ], [ %0, %1 ], [ %0, %udt_close_if_finished.exit ]
  ret ptr %.0
}